target datalayout = "e-m:e-p270:32:32-p271:32:32-p272:64:64-i64:64-i128:128-f80:128-n8:16:32:64-S128"
target triple = "x86_64-pc-linux-gnu"

@gpa_name_map = internal global ptr null, align 8
@prefixes = internal global ptr null, align 8
@last_field_name = internal global ptr null, align 8
@last_hfinfo = internal global ptr null, align 8

; Function Attrs: null_pointer_is_valid sspstrong uwtable
define ptr @proto_registrar_get_byname(ptr noundef %0) #0 {
  %2 = alloca ptr, align 8
  %3 = alloca ptr, align 8
  %4 = alloca ptr, align 8
  %5 = alloca ptr, align 8
  %6 = alloca i32, align 4
  store ptr %0, ptr %3, align 8
  call void @llvm.lifetime.start.p0(i64 8, ptr %4) #24
  call void @llvm.lifetime.start.p0(i64 8, ptr %5) #24
  %7 = load ptr, ptr %3, align 8
  %8 = icmp ne ptr %7, null
  br i1 %8, label %10, label %9

9:                                                ; preds = %1
  store ptr null, ptr %2, align 8
  store i32 1, ptr %6, align 4
  br label %58

10:                                               ; preds = %1
  %11 = load ptr, ptr %3, align 8
  %12 = load ptr, ptr @last_field_name, align 8
  %13 = call i32 @g_strcmp0(ptr noundef %11, ptr noundef %12)
  %14 = icmp eq i32 %13, 0
  br i1 %14, label %15, label %17

15:                                               ; preds = %10
  %16 = load ptr, ptr @last_hfinfo, align 8
  store ptr %16, ptr %2, align 8
  store i32 1, ptr %6, align 4
  br label %58

17:                                               ; preds = %10
  %18 = load ptr, ptr @gpa_name_map, align 8
  %19 = load ptr, ptr %3, align 8
  %20 = call ptr @g_hash_table_lookup(ptr noundef %18, ptr noundef %19)
  store ptr %20, ptr %4, align 8
  %21 = load ptr, ptr %4, align 8
  %22 = icmp ne ptr %21, null
  br i1 %22, label %23, label %29

23:                                               ; preds = %17
  %24 = load ptr, ptr @last_field_name, align 8
  call void @g_free(ptr noundef %24)
  %25 = load ptr, ptr %3, align 8
  %26 = call noalias ptr @g_strdup(ptr noundef %25)
  store ptr %26, ptr @last_field_name, align 8
  %27 = load ptr, ptr %4, align 8
  store ptr %27, ptr @last_hfinfo, align 8
  %28 = load ptr, ptr %4, align 8
  store ptr %28, ptr %2, align 8
  store i32 1, ptr %6, align 4
  br label %58

29:                                               ; preds = %17
  %30 = load ptr, ptr @prefixes, align 8
  %31 = icmp ne ptr %30, null
  br i1 %31, label %33, label %32

32:                                               ; preds = %29
  store ptr null, ptr %2, align 8
  store i32 1, ptr %6, align 4
  br label %58

33:                                               ; preds = %29
  %34 = load ptr, ptr @prefixes, align 8
  %35 = load ptr, ptr %3, align 8
  %36 = call ptr @g_hash_table_lookup(ptr noundef %34, ptr noundef %35)
  store ptr %36, ptr %5, align 8
  %37 = icmp ne ptr %36, null
  br i1 %37, label %38, label %44

38:                                               ; preds = %33
  %39 = load ptr, ptr %5, align 8
  %40 = load ptr, ptr %3, align 8
  call void %39(ptr noundef %40)
  %41 = load ptr, ptr @prefixes, align 8
  %42 = load ptr, ptr %3, align 8
  %43 = call i32 @g_hash_table_remove(ptr noundef %41, ptr noundef %42)
  br label %45

44:                                               ; preds = %33
  store ptr null, ptr %2, align 8
  store i32 1, ptr %6, align 4
  br label %58

45:                                               ; preds = %38
  %46 = load ptr, ptr @gpa_name_map, align 8
  %47 = load ptr, ptr %3, align 8
  %48 = call ptr @g_hash_table_lookup(ptr noundef %46, ptr noundef %47)
  store ptr %48, ptr %4, align 8
  %49 = load ptr, ptr %4, align 8
  %50 = icmp ne ptr %49, null
  br i1 %50, label %51, label %56

51:                                               ; preds = %45
  %52 = load ptr, ptr @last_field_name, align 8
  call void @g_free(ptr noundef %52)
  %53 = load ptr, ptr %3, align 8
  %54 = call noalias ptr @g_strdup(ptr noundef %53)
  store ptr %54, ptr @last_field_name, align 8
  %55 = load ptr, ptr %4, align 8
  store ptr %55, ptr @last_hfinfo, align 8
  br label %56

56:                                               ; preds = %51, %45
  %57 = load ptr, ptr %4, align 8
  store ptr %57, ptr %2, align 8
  store i32 1, ptr %6, align 4
  br label %58

58:                                               ; preds = %56, %44, %32, %23, %15, %9
  call void @llvm.lifetime.end.p0(i64 8, ptr %5) #24
  call void @llvm.lifetime.end.p0(i64 8, ptr %4) #24
  %59 = load ptr, ptr %2, align 8
  ret ptr %59
}