; Function Attrs: null_pointer_is_valid sspstrong uwtable
define ptr @proto_registrar_get_byname(ptr noundef %0) local_unnamed_addr #0 {
  %.not = icmp eq ptr %0, null
  br i1 %.not, label %26, label %2

2:                                                ; preds = %1
  %3 = load ptr, ptr @last_field_name, align 8
  %4 = tail call i32 @g_strcmp0(ptr noundef nonnull %0, ptr noundef %3)
  %5 = icmp eq i32 %4, 0
  br i1 %5, label %6, label %8

6:                                                ; preds = %2
  %7 = load ptr, ptr @last_hfinfo, align 8
  br label %26

8:                                                ; preds = %2
  %9 = load ptr, ptr @gpa_name_map, align 8
  %10 = tail call ptr @g_hash_table_lookup(ptr noundef %9, ptr noundef nonnull %0)
  %.not22 = icmp eq ptr %10, null
  br i1 %.not22, label %14, label %11

11:                                               ; preds = %8
  %12 = load ptr, ptr @last_field_name, align 8
  tail call void @g_free(ptr noundef %12)
  %13 = tail call noalias ptr @g_strdup(ptr noundef nonnull %0)
  store ptr %13, ptr @last_field_name, align 8
  store ptr %10, ptr @last_hfinfo, align 8
  br label %26

14:                                               ; preds = %8
  %15 = load ptr, ptr @prefixes, align 8
  %.not23 = icmp eq ptr %15, null
  br i1 %.not23, label %26, label %16

16:                                               ; preds = %14
  %17 = tail call ptr @g_hash_table_lookup(ptr noundef nonnull %15, ptr noundef nonnull %0)
  %.not24 = icmp eq ptr %17, null
  br i1 %.not24, label %26, label %18

18:                                               ; preds = %16
  tail call void %17(ptr noundef nonnull %0)
  %19 = load ptr, ptr @prefixes, align 8
  %20 = tail call i32 @g_hash_table_remove(ptr noundef %19, ptr noundef nonnull %0)
  %21 = load ptr, ptr @gpa_name_map, align 8
  %22 = tail call ptr @g_hash_table_lookup(ptr noundef %21, ptr noundef nonnull %0)
  %.not25 = icmp eq ptr %22, null
  br i1 %.not25, label %26, label %23

23:                                               ; preds = %18
  %24 = load ptr, ptr @last_field_name, align 8
  tail call void @g_free(ptr noundef %24)
  %25 = tail call noalias ptr @g_strdup(ptr noundef nonnull %0)
  store ptr %25, ptr @last_field_name, align 8
  store ptr %22, ptr @last_hfinfo, align 8
  br label %26

26:                                               ; preds = %18, %23, %16, %14, %1, %11, %6
  %.0 = phi ptr [ %7, %6 ], [ %10, %11 ], [ null, %1 ], [ null, %14 ], [ null, %16 ], [ %22, %23 ], [ null, %18 ]
  ret ptr %.0
}